target datalayout = "e-m:e-p270:32:32-p271:32:32-p272:64:64-i64:64-i128:128-f80:128-n8:16:32:64-S128"
target triple = "x86_64-pc-linux-gnu"

; Function Attrs: nounwind uwtable
define i32 @pmix_fd_read(i32 noundef %0, i32 noundef %1, ptr noundef %2) #0 {
  %4 = alloca i32, align 4
  %5 = alloca i32, align 4
  %6 = alloca i32, align 4
  %7 = alloca ptr, align 8
  %8 = alloca i32, align 4
  %9 = alloca ptr, align 8
  %10 = alloca i32, align 4
  store i32 %0, ptr %5, align 4, !tbaa !3
  store i32 %1, ptr %6, align 4, !tbaa !3
  store ptr %2, ptr %7, align 8, !tbaa !7
  call void @llvm.lifetime.start.p0(i64 4, ptr %8) #6
  call void @llvm.lifetime.start.p0(i64 8, ptr %9) #6
  %11 = load ptr, ptr %7, align 8, !tbaa !7
  store ptr %11, ptr %9, align 8, !tbaa !9
  br label %12

12:                                               ; preds = %50, %32, %3
  %13 = load i32, ptr %6, align 4, !tbaa !3
  %14 = icmp sgt i32 %13, 0
  br i1 %14, label %15, label %51

15:                                               ; preds = %12
  %16 = load i32, ptr %5, align 4, !tbaa !3
  %17 = load ptr, ptr %9, align 8, !tbaa !9
  %18 = load i32, ptr %6, align 4, !tbaa !3
  %19 = sext i32 %18 to i64
  %20 = call i64 @read(i32 noundef %16, ptr noundef %17, i64 noundef %19)
  %21 = trunc i64 %20 to i32
  store i32 %21, ptr %8, align 4, !tbaa !3
  %22 = load i32, ptr %8, align 4, !tbaa !3
  %23 = icmp slt i32 %22, 0
  br i1 %23, label %24, label %33

24:                                               ; preds = %15
  %25 = call ptr @__errno_location() #7
  %26 = load i32, ptr %25, align 4, !tbaa !3
  %27 = icmp eq i32 11, %26
  br i1 %27, label %32, label %28

28:                                               ; preds = %24
  %29 = call ptr @__errno_location() #7
  %30 = load i32, ptr %29, align 4, !tbaa !3
  %31 = icmp eq i32 4, %30
  br i1 %31, label %32, label %33

32:                                               ; preds = %28, %24
  br label %12, !llvm.loop !11

33:                                               ; preds = %28, %15
  %34 = load i32, ptr %8, align 4, !tbaa !3
  %35 = icmp sgt i32 %34, 0
  br i1 %35, label %36, label %44

36:                                               ; preds = %33
  %37 = load i32, ptr %8, align 4, !tbaa !3
  %38 = load i32, ptr %6, align 4, !tbaa !3
  %39 = sub nsw i32 %38, %37
  store i32 %39, ptr %6, align 4, !tbaa !3
  %40 = load i32, ptr %8, align 4, !tbaa !3
  %41 = load ptr, ptr %9, align 8, !tbaa !9
  %42 = sext i32 %40 to i64
  %43 = getelementptr inbounds i8, ptr %41, i64 %42
  store ptr %43, ptr %9, align 8, !tbaa !9
  br label %49

44:                                               ; preds = %33
  %45 = load i32, ptr %8, align 4, !tbaa !3
  %46 = icmp eq i32 0, %45
  br i1 %46, label %47, label %48

47:                                               ; preds = %44
  store i32 -24, ptr %4, align 4
  store i32 1, ptr %10, align 4
  br label %52

48:                                               ; preds = %44
  store i32 -26, ptr %4, align 4
  store i32 1, ptr %10, align 4
  br label %52

49:                                               ; preds = %36
  br label %50

50:                                               ; preds = %49
  br label %12, !llvm.loop !11

51:                                               ; preds = %12
  store i32 0, ptr %4, align 4
  store i32 1, ptr %10, align 4
  br label %52

52:                                               ; preds = %51, %48, %47
  call void @llvm.lifetime.end.p0(i64 8, ptr %9) #6
  call void @llvm.lifetime.end.p0(i64 4, ptr %8) #6
  %53 = load i32, ptr %4, align 4
  ret i32 %53
}